target datalayout = "e-m:e-p270:32:32-p271:32:32-p272:64:64-i64:64-f80:128-n8:16:32:64-S128"
target triple = "x86_64-pc-linux-gnu"

@.str = private unnamed_addr constant [3 x i8] c"%d\00", align 1
@.str.1 = private unnamed_addr constant [3 x i8] c"%s\00", align 1
@.str.2 = private unnamed_addr constant [3 x i8] c"NO\00", align 1
@.str.3 = private unnamed_addr constant [4 x i8] c"%d\0A\00", align 1
@.str.4 = private unnamed_addr constant [4 x i8] c"%s\0A\00", align 1

; Function Attrs: noinline nounwind uwtable
define dso_local i32 @main() #0 {
  %1 = alloca i32, align 4
  %2 = alloca [500 x i8], align 16
  %3 = alloca [500 x [6 x i8]], align 16
  %4 = alloca [6 x i8], align 1
  %5 = alloca [500 x i32], align 16
  %6 = alloca i32, align 4
  %7 = alloca i32, align 4
  %8 = alloca i32, align 4
  %9 = alloca i32, align 4
  %10 = alloca i32, align 4
  %11 = alloca i32, align 4
  store i32 0, i32* %1, align 4
  %12 = bitcast [500 x i32]* %5 to i8*
  call void @llvm.memset.p0i8.i64(i8* align 16 %12, i8 0, i64 2000, i1 false)
  store i32 0, i32* %10, align 4
  %13 = call i32 (i8*, ...) @__isoc99_scanf(i8* getelementptr inbounds ([3 x i8], [3 x i8]* @.str, i64 0, i64 0), i32* %6)
  %14 = getelementptr inbounds [500 x i8], [500 x i8]* %2, i64 0, i64 0
  %15 = call i32 (i8*, ...) @__isoc99_scanf(i8* getelementptr inbounds ([3 x i8], [3 x i8]* @.str.1, i64 0, i64 0), i8* %14)
  store i32 0, i32* %7, align 4
  br label %16

16:                                               ; preds = %53, %0
  %17 = load i32, i32* %7, align 4
  %18 = sext i32 %17 to i64
  %19 = getelementptr inbounds [500 x i8], [500 x i8]* %2, i64 0, i64 0
  %20 = call i64 @strlen(i8* %19) #4
  %21 = load i32, i32* %6, align 4
  %22 = sext i32 %21 to i64
  %23 = sub i64 %20, %22
  %24 = icmp ule i64 %18, %23
  br i1 %24, label %25, label %56

25:                                               ; preds = %16
  store i32 0, i32* %8, align 4
  br label %26

26:                                               ; preds = %43, %25
  %27 = load i32, i32* %8, align 4
  %28 = load i32, i32* %6, align 4
  %29 = icmp slt i32 %27, %28
  br i1 %29, label %30, label %46

30:                                               ; preds = %26
  %31 = load i32, i32* %7, align 4
  %32 = load i32, i32* %8, align 4
  %33 = add nsw i32 %31, %32
  %34 = sext i32 %33 to i64
  %35 = getelementptr inbounds [500 x i8], [500 x i8]* %2, i64 0, i64 %34
  %36 = load i8, i8* %35, align 1
  %37 = load i32, i32* %7, align 4
  %38 = sext i32 %37 to i64
  %39 = getelementptr inbounds [500 x [6 x i8]], [500 x [6 x i8]]* %3, i64 0, i64 %38
  %40 = load i32, i32* %8, align 4
  %41 = sext i32 %40 to i64
  %42 = getelementptr inbounds [6 x i8], [6 x i8]* %39, i64 0, i64 %41
  store i8 %36, i8* %42, align 1
  br label %43

43:                                               ; preds = %30
  %44 = load i32, i32* %8, align 4
  %45 = add nsw i32 %44, 1
  store i32 %45, i32* %8, align 4
  br label %26

46:                                               ; preds = %26
  %47 = load i32, i32* %7, align 4
  %48 = sext i32 %47 to i64
  %49 = getelementptr inbounds [500 x [6 x i8]], [500 x [6 x i8]]* %3, i64 0, i64 %48
  %50 = load i32, i32* %8, align 4
  %51 = sext i32 %50 to i64
  %52 = getelementptr inbounds [6 x i8], [6 x i8]* %49, i64 0, i64 %51
  store i8 0, i8* %52, align 1
  br label %53

53:                                               ; preds = %46
  %54 = load i32, i32* %7, align 4
  %55 = add nsw i32 %54, 1
  store i32 %55, i32* %7, align 4
  br label %16

56:                                               ; preds = %16
  store i32 0, i32* %7, align 4
  br label %57

57:                                               ; preds = %126, %56
  %58 = load i32, i32* %7, align 4
  %59 = sext i32 %58 to i64
  %60 = getelementptr inbounds [500 x i8], [500 x i8]* %2, i64 0, i64 0
  %61 = call i64 @strlen(i8* %60) #4
  %62 = load i32, i32* %6, align 4
  %63 = sext i32 %62 to i64
  %64 = sub i64 %61, %63
  %65 = icmp ule i64 %59, %64
  br i1 %65, label %66, label %129

66:                                               ; preds = %57
  store i32 0, i32* %8, align 4
  br label %67

67:                                               ; preds = %84, %66
  %68 = load i32, i32* %8, align 4
  %69 = load i32, i32* %7, align 4
  %70 = icmp slt i32 %68, %69
  br i1 %70, label %71, label %87

71:                                               ; preds = %67
  %72 = load i32, i32* %8, align 4
  %73 = sext i32 %72 to i64
  %74 = getelementptr inbounds [500 x [6 x i8]], [500 x [6 x i8]]* %3, i64 0, i64 %73
  %75 = getelementptr inbounds [6 x i8], [6 x i8]* %74, i64 0, i64 0
  %76 = load i32, i32* %7, align 4
  %77 = sext i32 %76 to i64
  %78 = getelementptr inbounds [500 x [6 x i8]], [500 x [6 x i8]]* %3, i64 0, i64 %77
  %79 = getelementptr inbounds [6 x i8], [6 x i8]* %78, i64 0, i64 0
  %80 = call i32 @strcmp(i8* %75, i8* %79) #4
  %81 = icmp eq i32 %80, 0
  br i1 %81, label %82, label %83

82:                                               ; preds = %71
  br label %87

83:                                               ; preds = %71
  br label %84

84:                                               ; preds = %83
  %85 = load i32, i32* %8, align 4
  %86 = add nsw i32 %85, 1
  store i32 %86, i32* %8, align 4
  br label %67

87:                                               ; preds = %82, %67
  %88 = load i32, i32* %8, align 4
  %89 = load i32, i32* %7, align 4
  %90 = icmp eq i32 %88, %89
  br i1 %90, label %91, label %125

91:                                               ; preds = %87
  %92 = load i32, i32* %7, align 4
  %93 = add nsw i32 %92, 1
  store i32 %93, i32* %9, align 4
  br label %94

94:                                               ; preds = %121, %91
  %95 = load i32, i32* %9, align 4
  %96 = sext i32 %95 to i64
  %97 = getelementptr inbounds [500 x i8], [500 x i8]* %2, i64 0, i64 0
  %98 = call i64 @strlen(i8* %97) #4
  %99 = load i32, i32* %6, align 4
  %100 = sext i32 %99 to i64
  %101 = sub i64 %98, %100
  %102 = icmp ule i64 %96, %101
  br i1 %102, label %103, label %124

103:                                              ; preds = %94
  %104 = load i32, i32* %9, align 4
  %105 = sext i32 %104 to i64
  %106 = getelementptr inbounds [500 x [6 x i8]], [500 x [6 x i8]]* %3, i64 0, i64 %105
  %107 = getelementptr inbounds [6 x i8], [6 x i8]* %106, i64 0, i64 0
  %108 = load i32, i32* %7, align 4
  %109 = sext i32 %108 to i64
  %110 = getelementptr inbounds [500 x [6 x i8]], [500 x [6 x i8]]* %3, i64 0, i64 %109
  %111 = getelementptr inbounds [6 x i8], [6 x i8]* %110, i64 0, i64 0
  %112 = call i32 @strcmp(i8* %107, i8* %111) #4
  %113 = icmp eq i32 %112, 0
  br i1 %113, label %114, label %120

114:                                              ; preds = %103
  %115 = load i32, i32* %7, align 4
  %116 = sext i32 %115 to i64
  %117 = getelementptr inbounds [500 x i32], [500 x i32]* %5, i64 0, i64 %116
  %118 = load i32, i32* %117, align 4
  %119 = add nsw i32 %118, 1
  store i32 %119, i32* %117, align 4
  br label %120

120:                                              ; preds = %114, %103
  br label %121

121:                                              ; preds = %120
  %122 = load i32, i32* %9, align 4
  %123 = add nsw i32 %122, 1
  store i32 %123, i32* %9, align 4
  br label %94

124:                                              ; preds = %94
  br label %125

125:                                              ; preds = %124, %87
  br label %126

126:                                              ; preds = %125
  %127 = load i32, i32* %7, align 4
  %128 = add nsw i32 %127, 1
  store i32 %128, i32* %7, align 4
  br label %57

129:                                              ; preds = %57
  store i32 0, i32* %7, align 4
  br label %130

130:                                              ; preds = %152, %129
  %131 = load i32, i32* %7, align 4
  %132 = sext i32 %131 to i64
  %133 = getelementptr inbounds [500 x i8], [500 x i8]* %2, i64 0, i64 0
  %134 = call i64 @strlen(i8* %133) #4
  %135 = load i32, i32* %6, align 4
  %136 = sext i32 %135 to i64
  %137 = sub i64 %134, %136
  %138 = icmp ule i64 %132, %137
  br i1 %138, label %139, label %155

139:                                              ; preds = %130
  %140 = load i32, i32* %10, align 4
  %141 = load i32, i32* %7, align 4
  %142 = sext i32 %141 to i64
  %143 = getelementptr inbounds [500 x i32], [500 x i32]* %5, i64 0, i64 %142
  %144 = load i32, i32* %143, align 4
  %145 = icmp slt i32 %140, %144
  br i1 %145, label %146, label %151

146:                                              ; preds = %139
  %147 = load i32, i32* %7, align 4
  %148 = sext i32 %147 to i64
  %149 = getelementptr inbounds [500 x i32], [500 x i32]* %5, i64 0, i64 %148
  %150 = load i32, i32* %149, align 4
  store i32 %150, i32* %10, align 4
  br label %151

151:                                              ; preds = %146, %139
  br label %152

152:                                              ; preds = %151
  %153 = load i32, i32* %7, align 4
  %154 = add nsw i32 %153, 1
  store i32 %154, i32* %7, align 4
  br label %130

155:                                              ; preds = %130
  %156 = load i32, i32* %10, align 4
  %157 = icmp eq i32 %156, 0
  br i1 %157, label %158, label %160

158:                                              ; preds = %155
  %159 = call i32 (i8*, ...) @printf(i8* getelementptr inbounds ([3 x i8], [3 x i8]* @.str.2, i64 0, i64 0))
  br label %191

160:                                              ; preds = %155
  %161 = load i32, i32* %10, align 4
  %162 = add nsw i32 %161, 1
  %163 = call i32 (i8*, ...) @printf(i8* getelementptr inbounds ([4 x i8], [4 x i8]* @.str.3, i64 0, i64 0), i32 %162)
  store i32 0, i32* %7, align 4
  br label %164

164:                                              ; preds = %187, %160
  %165 = load i32, i32* %7, align 4
  %166 = sext i32 %165 to i64
  %167 = getelementptr inbounds [500 x i8], [500 x i8]* %2, i64 0, i64 0
  %168 = call i64 @strlen(i8* %167) #4
  %169 = load i32, i32* %6, align 4
  %170 = sext i32 %169 to i64
  %171 = sub i64 %168, %170
  %172 = icmp ule i64 %166, %171
  br i1 %172, label %173, label %190

173:                                              ; preds = %164
  %174 = load i32, i32* %10, align 4
  %175 = load i32, i32* %7, align 4
  %176 = sext i32 %175 to i64
  %177 = getelementptr inbounds [500 x i32], [500 x i32]* %5, i64 0, i64 %176
  %178 = load i32, i32* %177, align 4
  %179 = icmp eq i32 %174, %178
  br i1 %179, label %180, label %186

180:                                              ; preds = %173
  %181 = load i32, i32* %7, align 4
  %182 = sext i32 %181 to i64
  %183 = getelementptr inbounds [500 x [6 x i8]], [500 x [6 x i8]]* %3, i64 0, i64 %182
  %184 = getelementptr inbounds [6 x i8], [6 x i8]* %183, i64 0, i64 0
  %185 = call i32 (i8*, ...) @printf(i8* getelementptr inbounds ([4 x i8], [4 x i8]* @.str.4, i64 0, i64 0), i8* %184)
  br label %186

186:                                              ; preds = %180, %173
  br label %187

187:                                              ; preds = %186
  %188 = load i32, i32* %7, align 4
  %189 = add nsw i32 %188, 1
  store i32 %189, i32* %7, align 4
  br label %164

190:                                              ; preds = %164
  br label %191

191:                                              ; preds = %190, %158
  ret i32 0
}